; Function Attrs: nofree norecurse nosync nounwind memory(argmem: readwrite) uwtable
define internal void @weight_h264_pixels2_14_c(ptr noundef captures(none) %0, i64 noundef %1, i32 noundef %2, i32 noundef %3, i32 noundef %4, i32 noundef %5) #1 {
  %7 = ashr i64 %1, 1
  %8 = add nsw i32 %3, 6
  %9 = shl i32 %5, %8
  %.not = icmp eq i32 %3, 0
  %10 = add nsw i32 %3, -1
  %11 = shl nuw i32 1, %10
  %12 = select i1 %.not, i32 0, i32 %11
  %.022 = add nsw i32 %9, %12
  %13 = icmp sgt i32 %2, 0
  br i1 %13, label %.lr.ph, label %._crit_edge

.lr.ph:                                           ; preds = %6, %.lr.ph
  %.028 = phi ptr [ %32, %.lr.ph ], [ %0, %6 ]
  %.02127 = phi i32 [ %31, %.lr.ph ], [ 0, %6 ]
  %14 = load i16, ptr %.028, align 2, !tbaa !37
  %15 = zext i16 %14 to i32
  %16 = mul nsw i32 %4, %15
  %17 = add nsw i32 %16, %.022
  %18 = ashr i32 %17, %3
  %19 = tail call i32 @llvm.smax.i32(i32 %18, i32 0)
  %20 = tail call i32 @llvm.umin.i32(i32 %19, i32 16383)
  %21 = trunc nuw nsw i32 %20 to i16
  store i16 %21, ptr %.028, align 2, !tbaa !37
  %22 = getelementptr inbounds nuw i8, ptr %.028, i64 2
  %23 = load i16, ptr %22, align 2, !tbaa !37
  %24 = zext i16 %23 to i32
  %25 = mul nsw i32 %4, %24
  %26 = add nsw i32 %25, %.022
  %27 = ashr i32 %26, %3
  %28 = tail call i32 @llvm.smax.i32(i32 %27, i32 0)
  %29 = tail call i32 @llvm.umin.i32(i32 %28, i32 16383)
  %30 = trunc nuw nsw i32 %29 to i16
  store i16 %30, ptr %22, align 2, !tbaa !37
  %31 = add nuw nsw i32 %.02127, 1
  %32 = getelementptr inbounds i16, ptr %.028, i64 %7
  %exitcond.not = icmp eq i32 %31, %2
  br i1 %exitcond.not, label %._crit_edge, label %.lr.ph, !llvm.loop !90

._crit_edge:                                      ; preds = %.lr.ph, %6
  ret void
}